; ModuleID = 'source-C-CXX/44/2243.c'
source_filename = "source-C-CXX/44/2243.c"
target datalayout = "e-m:e-p270:32:32-p271:32:32-p272:64:64-i64:64-f80:128-n8:16:32:64-S128"
target triple = "x86_64-pc-linux-gnu"

@.str = private unnamed_addr constant [5 x i8] c"%s%s\00", align 1
@.str.1 = private unnamed_addr constant [3 x i8] c"%d\00", align 1

; Function Attrs: nofree nounwind sspstrong uwtable
define dso_local i32 @main() local_unnamed_addr #0 {
  %1 = alloca [20 x i8], align 16
  %2 = alloca [20 x i8], align 16
  %3 = getelementptr inbounds [20 x i8], [20 x i8]* %1, i64 0, i64 0
  call void @llvm.lifetime.start.p0i8(i64 20, i8* nonnull %3) #4
  %4 = getelementptr inbounds [20 x i8], [20 x i8]* %2, i64 0, i64 0
  call void @llvm.lifetime.start.p0i8(i64 20, i8* nonnull %4) #4
  %5 = call i32 (i8*, ...) @__isoc99_scanf(i8* getelementptr inbounds ([5 x i8], [5 x i8]* @.str, i64 0, i64 0), i8* nonnull %4, i8* nonnull %3)
  %6 = call i64 @strlen(i8* noundef nonnull %3) #5
  %7 = trunc i64 %6 to i32
  %8 = call i64 @strlen(i8* noundef nonnull %4) #5
  %9 = trunc i64 %8 to i32
  %10 = icmp slt i32 %7, %9
  br i1 %10, label %38, label %11

11:                                               ; preds = %0
  %12 = add i64 %6, 1
  %13 = sub i64 %12, %8
  %14 = and i64 %13, 4294967295
  %15 = icmp sgt i32 %9, 0
  br label %16

16:                                               ; preds = %11, %35
  %17 = phi i64 [ 0, %11 ], [ %36, %35 ]
  %18 = trunc i64 %17 to i32
  %19 = add nsw i32 %18, %9
  br i1 %15, label %23, label %32

20:                                               ; preds = %23
  %21 = trunc i64 %31 to i32
  %22 = icmp sgt i32 %19, %21
  br i1 %22, label %23, label %32, !llvm.loop !5

23:                                               ; preds = %16, %20
  %24 = phi i64 [ %31, %20 ], [ %17, %16 ]
  %25 = sub nuw nsw i64 %24, %17
  %26 = getelementptr inbounds [20 x i8], [20 x i8]* %2, i64 0, i64 %25
  %27 = load i8, i8* %26, align 1, !tbaa !7
  %28 = getelementptr inbounds [20 x i8], [20 x i8]* %1, i64 0, i64 %24
  %29 = load i8, i8* %28, align 1, !tbaa !7
  %30 = icmp eq i8 %27, %29
  %31 = add nuw nsw i64 %24, 1
  br i1 %30, label %20, label %35

32:                                               ; preds = %16, %20
  %33 = trunc i64 %17 to i32
  %34 = call i32 (i8*, ...) @printf(i8* nonnull dereferenceable(1) getelementptr inbounds ([3 x i8], [3 x i8]* @.str.1, i64 0, i64 0), i32 %33)
  br label %38

35:                                               ; preds = %23
  %36 = add nuw nsw i64 %17, 1
  %37 = icmp eq i64 %36, %14
  br i1 %37, label %38, label %16, !llvm.loop !10

38:                                               ; preds = %35, %0, %32
  call void @llvm.lifetime.end.p0i8(i64 20, i8* nonnull %4) #4
  call void @llvm.lifetime.end.p0i8(i64 20, i8* nonnull %3) #4
  ret i32 0
}

; Function Attrs: argmemonly mustprogress nofree nosync nounwind willreturn
declare void @llvm.lifetime.start.p0i8(i64 immarg, i8* nocapture) #1

; Function Attrs: nofree nounwind
declare noundef i32 @__isoc99_scanf(i8* nocapture noundef readonly, ...) local_unnamed_addr #2

; Function Attrs: argmemonly mustprogress nofree nounwind readonly willreturn
declare i64 @strlen(i8* nocapture) local_unnamed_addr #3

; Function Attrs: nofree nounwind
declare noundef i32 @printf(i8* nocapture noundef readonly, ...) local_unnamed_addr #2

; Function Attrs: argmemonly mustprogress nofree nosync nounwind willreturn
declare void @llvm.lifetime.end.p0i8(i64 immarg, i8* nocapture) #1


!llvm.module.flags = !{!0, !1, !2, !3}
!llvm.ident = !{!4}

!0 = !{i32 1, !"wchar_size", i32 4}
!1 = !{i32 7, !"PIC Level", i32 2}
!2 = !{i32 7, !"PIE Level", i32 2}
!3 = !{i32 7, !"uwtable", i32 1}
!4 = !{!"clang version 13.0.0"}
!5 = distinct !{!5, !6}
!6 = !{!"llvm.loop.mustprogress"}
!7 = !{!8, !8, i64 0}
!8 = !{!"omnipotent char", !9, i64 0}
!9 = !{!"Simple C/C++ TBAA"}
!10 = distinct !{!10, !6}
